target datalayout = "e-m:e-p270:32:32-p271:32:32-p272:64:64-i64:64-i128:128-f80:128-n8:16:32:64-S128"
target triple = "x86_64-pc-linux-gnu"

%"struct.cv::detail::tracking::TrackerContribSamplerCSC::Params" = type { float, float, float, i32, i32, i32 }

; Function Attrs: mustprogress nounwind uwtable
define void @_ZN2cv6detail8tracking24TrackerContribSamplerCSC6ParamsC2Ev(ptr noundef nonnull align 4 dereferenceable(24) %0) unnamed_addr #8 align 2 {
  %2 = alloca ptr, align 8
  store ptr %0, ptr %2, align 8, !tbaa !154
  %3 = load ptr, ptr %2, align 8
  %4 = getelementptr inbounds nuw %"struct.cv::detail::tracking::TrackerContribSamplerCSC::Params", ptr %3, i32 0, i32 0
  store float 3.000000e+00, ptr %4, align 4, !tbaa !156
  %5 = getelementptr inbounds nuw %"struct.cv::detail::tracking::TrackerContribSamplerCSC::Params", ptr %3, i32 0, i32 3
  store i32 65, ptr %5, align 4, !tbaa !158
  %6 = getelementptr inbounds nuw %"struct.cv::detail::tracking::TrackerContribSamplerCSC::Params", ptr %3, i32 0, i32 2
  store float 2.500000e+01, ptr %6, align 4, !tbaa !159
  %7 = getelementptr inbounds nuw %"struct.cv::detail::tracking::TrackerContribSamplerCSC::Params", ptr %3, i32 0, i32 1
  store float 4.000000e+00, ptr %7, align 4, !tbaa !160
  %8 = getelementptr inbounds nuw %"struct.cv::detail::tracking::TrackerContribSamplerCSC::Params", ptr %3, i32 0, i32 5
  store i32 65, ptr %8, align 4, !tbaa !161
  %9 = getelementptr inbounds nuw %"struct.cv::detail::tracking::TrackerContribSamplerCSC::Params", ptr %3, i32 0, i32 4
  store i32 100000, ptr %9, align 4, !tbaa !162
  ret void
}