; Function Attrs: mustprogress nofree norecurse nosync nounwind willreturn memory(argmem: write) uwtable
define void @_ZN2cv6detail8tracking24TrackerContribSamplerCSC6ParamsC2Ev(ptr noundef nonnull writeonly align 4 captures(none) dereferenceable(24) initializes((0, 24)) %0) unnamed_addr #20 align 2 {
  store float 3.000000e+00, ptr %0, align 4, !tbaa !152
  %2 = getelementptr inbounds nuw i8, ptr %0, i64 12
  store i32 65, ptr %2, align 4, !tbaa !154
  %3 = getelementptr inbounds nuw i8, ptr %0, i64 8
  store float 2.500000e+01, ptr %3, align 4, !tbaa !155
  %4 = getelementptr inbounds nuw i8, ptr %0, i64 4
  store float 4.000000e+00, ptr %4, align 4, !tbaa !156
  %5 = getelementptr inbounds nuw i8, ptr %0, i64 20
  store i32 65, ptr %5, align 4, !tbaa !157
  %6 = getelementptr inbounds nuw i8, ptr %0, i64 16
  store i32 100000, ptr %6, align 4, !tbaa !158
  ret void
}